; Function Attrs: mustprogress uwtable
define internal noundef i32 @_ZL40handshaker_result_create_frame_protectorPK21tsi_handshaker_resultPmPP19tsi_frame_protector(ptr noundef readonly %0, ptr noundef %1, ptr noundef %2) #3 personality ptr @__gxx_personality_v0 {
  %4 = alloca %"class.absl::lts_20240722::log_internal::LogMessage", align 8
  %5 = alloca %"class.absl::lts_20240722::log_internal::LogMessage", align 8
  %6 = icmp eq ptr %0, null
  %7 = icmp eq ptr %2, null
  %or.cond = or i1 %6, %7
  br i1 %or.cond, label %8, label %11

8:                                                ; preds = %3
  call void @llvm.lifetime.start.p0(i64 16, ptr nonnull %4) #29
  call void @_ZN4absl12lts_2024072212log_internal10LogMessageC1EPKciNS2_8ErrorTagE(ptr noundef nonnull align 8 dereferenceable(16) %4, ptr noundef nonnull @.str, i32 noundef 206) #30
  invoke void @_ZN4absl12lts_2024072212log_internal10LogMessage19CopyToEncodedBufferILNS2_10StringTypeE0EEEvSt17basic_string_viewIcSt11char_traitsIcEE(ptr noundef nonnull align 8 dereferenceable(16) %4, i64 63, ptr nonnull @.str.34)
          to label %_ZN4absl12lts_2024072212log_internal10LogMessagelsILi64EEERS2_RAT__Kc.exit unwind label %9

_ZN4absl12lts_2024072212log_internal10LogMessagelsILi64EEERS2_RAT__Kc.exit: ; preds = %8
  call void @_ZN4absl12lts_2024072212log_internal10LogMessageD1Ev(ptr noundef nonnull align 8 dereferenceable(16) %4) #31
  call void @llvm.lifetime.end.p0(i64 16, ptr nonnull %4) #29
  br label %21

9:                                                ; preds = %8
  %10 = landingpad { ptr, i32 }
          cleanup
  call void @_ZN4absl12lts_2024072212log_internal10LogMessageD1Ev(ptr noundef nonnull align 8 dereferenceable(16) %4) #31
  call void @llvm.lifetime.end.p0(i64 16, ptr nonnull %4) #29
  br label %22

11:                                               ; preds = %3
  %12 = getelementptr inbounds nuw i8, ptr %0, i64 16
  %13 = load ptr, ptr %12, align 8, !tbaa !8
  %14 = getelementptr inbounds nuw i8, ptr %0, i64 72
  %15 = load i8, ptr %14, align 8, !tbaa !46, !range !62, !noundef !63
  %16 = trunc nuw i8 %15 to i1
  %17 = tail call noundef i32 @_Z27alts_create_frame_protectorPKhmbbPmPP19tsi_frame_protector(ptr noundef %13, i64 noundef 44, i1 noundef zeroext %16, i1 noundef zeroext true, ptr noundef %1, ptr noundef nonnull %2)
  %.not = icmp eq i32 %17, 0
  br i1 %.not, label %21, label %18

18:                                               ; preds = %11
  call void @llvm.lifetime.start.p0(i64 16, ptr nonnull %5) #29
  call void @_ZN4absl12lts_2024072212log_internal10LogMessageC1EPKciNS2_8ErrorTagE(ptr noundef nonnull align 8 dereferenceable(16) %5, ptr noundef nonnull @.str, i32 noundef 218) #30
  invoke void @_ZN4absl12lts_2024072212log_internal10LogMessage19CopyToEncodedBufferILNS2_10StringTypeE0EEEvSt17basic_string_viewIcSt11char_traitsIcEE(ptr noundef nonnull align 8 dereferenceable(16) %5, i64 32, ptr nonnull @.str.35)
          to label %_ZN4absl12lts_2024072212log_internal10LogMessagelsILi33EEERS2_RAT__Kc.exit unwind label %19

_ZN4absl12lts_2024072212log_internal10LogMessagelsILi33EEERS2_RAT__Kc.exit: ; preds = %18
  call void @_ZN4absl12lts_2024072212log_internal10LogMessageD1Ev(ptr noundef nonnull align 8 dereferenceable(16) %5) #31
  call void @llvm.lifetime.end.p0(i64 16, ptr nonnull %5) #29
  br label %21

19:                                               ; preds = %18
  %20 = landingpad { ptr, i32 }
          cleanup
  call void @_ZN4absl12lts_2024072212log_internal10LogMessageD1Ev(ptr noundef nonnull align 8 dereferenceable(16) %5) #31
  call void @llvm.lifetime.end.p0(i64 16, ptr nonnull %5) #29
  br label %22

21:                                               ; preds = %11, %_ZN4absl12lts_2024072212log_internal10LogMessagelsILi33EEERS2_RAT__Kc.exit, %_ZN4absl12lts_2024072212log_internal10LogMessagelsILi64EEERS2_RAT__Kc.exit
  %.0 = phi i32 [ 2, %_ZN4absl12lts_2024072212log_internal10LogMessagelsILi64EEERS2_RAT__Kc.exit ], [ %17, %_ZN4absl12lts_2024072212log_internal10LogMessagelsILi33EEERS2_RAT__Kc.exit ], [ 0, %11 ]
  ret i32 %.0

22:                                               ; preds = %19, %9
  %.pn = phi { ptr, i32 } [ %10, %9 ], [ %20, %19 ]
  resume { ptr, i32 } %.pn
}